target datalayout = "e-m:e-p270:32:32-p271:32:32-p272:64:64-i64:64-i128:128-f80:128-n8:16:32:64-S128"
target triple = "x86_64-pc-linux-gnu"

@hf_ecmp_category = internal global i32 0, align 4
@hf_ecmp_drive_type = internal global i32 0, align 4
@hf_ecmp_drive_derivative = internal global i32 0, align 4
@hf_ecmp_drive_factory_fit_category_id = internal global i32 0, align 4
@hf_ecmp_category_id = internal global i32 0, align 4
@hf_ecmp_data = internal global i32 0, align 4
@ett_ecmp_category = internal global i32 0, align 4

; Function Attrs: null_pointer_is_valid sspstrong uwtable
define internal i32 @add_category_codes(i32 noundef %0, ptr noundef %1, ptr noundef %2) #0 {
  %4 = alloca i32, align 4
  %5 = alloca ptr, align 8
  %6 = alloca ptr, align 8
  %7 = alloca ptr, align 8
  %8 = alloca ptr, align 8
  %9 = alloca i8, align 1
  %10 = alloca i32, align 4
  %11 = alloca i8, align 1
  store i32 %0, ptr %4, align 4
  store ptr %1, ptr %5, align 8
  store ptr %2, ptr %6, align 8
  call void @llvm.lifetime.start.p0(i64 8, ptr %7) #3
  store ptr null, ptr %7, align 8
  call void @llvm.lifetime.start.p0(i64 8, ptr %8) #3
  store ptr null, ptr %8, align 8
  call void @llvm.lifetime.start.p0(i64 1, ptr %9) #3
  store i8 0, ptr %9, align 1
  call void @llvm.lifetime.start.p0(i64 4, ptr %10) #3
  %12 = load i32, ptr %4, align 4
  store i32 %12, ptr %10, align 4
  call void @llvm.lifetime.start.p0(i64 1, ptr %11) #3
  %13 = load ptr, ptr %5, align 8
  %14 = load i32, ptr %4, align 4
  %15 = call zeroext i8 @tvb_get_uint8(ptr noundef %13, i32 noundef %14)
  store i8 %15, ptr %11, align 1
  %16 = load ptr, ptr %6, align 8
  %17 = load i32, ptr @hf_ecmp_category, align 4
  %18 = load ptr, ptr %5, align 8
  %19 = load i32, ptr %4, align 4
  %20 = call ptr @proto_tree_add_item(ptr noundef %16, i32 noundef %17, ptr noundef %18, i32 noundef %19, i32 noundef 1, i32 noundef 0)
  store ptr %20, ptr %7, align 8
  %21 = load ptr, ptr %7, align 8
  %22 = load i32, ptr @ett_ecmp_category, align 4
  %23 = call ptr @proto_item_add_subtree(ptr noundef %21, i32 noundef %22)
  store ptr %23, ptr %8, align 8
  %24 = load i32, ptr %4, align 4
  %25 = add i32 %24, 1
  store i32 %25, ptr %4, align 4
  %26 = load ptr, ptr %5, align 8
  %27 = load i32, ptr %4, align 4
  %28 = call zeroext i8 @tvb_get_uint8(ptr noundef %26, i32 noundef %27)
  store i8 %28, ptr %9, align 1
  %29 = load i32, ptr %4, align 4
  %30 = add i32 %29, 1
  store i32 %30, ptr %4, align 4
  %31 = load i8, ptr %9, align 1
  %32 = zext i8 %31 to i32
  %33 = icmp eq i32 %32, 2
  br i1 %33, label %34, label %48

34:                                               ; preds = %3
  %35 = load i8, ptr %11, align 1
  %36 = zext i8 %35 to i32
  %37 = icmp eq i32 %36, 1
  br i1 %37, label %38, label %48

38:                                               ; preds = %34
  %39 = load ptr, ptr %8, align 8
  %40 = load i32, ptr @hf_ecmp_category_id, align 4
  %41 = load ptr, ptr %5, align 8
  %42 = load i32, ptr %4, align 4
  %43 = call ptr @proto_tree_add_item(ptr noundef %39, i32 noundef %40, ptr noundef %41, i32 noundef %42, i32 noundef 2, i32 noundef 0)
  %44 = load i8, ptr %9, align 1
  %45 = zext i8 %44 to i32
  %46 = load i32, ptr %4, align 4
  %47 = add i32 %46, %45
  store i32 %47, ptr %4, align 4
  br label %91

48:                                               ; preds = %34, %3
  %49 = load i8, ptr %9, align 1
  %50 = zext i8 %49 to i32
  %51 = icmp eq i32 %50, 4
  br i1 %51, label %52, label %78

52:                                               ; preds = %48
  %53 = load i8, ptr %11, align 1
  %54 = zext i8 %53 to i32
  %55 = icmp eq i32 %54, 0
  br i1 %55, label %56, label %78

56:                                               ; preds = %52
  %57 = load ptr, ptr %8, align 8
  %58 = load i32, ptr @hf_ecmp_drive_type, align 4
  %59 = load ptr, ptr %5, align 8
  %60 = load i32, ptr %4, align 4
  %61 = call ptr @proto_tree_add_item(ptr noundef %57, i32 noundef %58, ptr noundef %59, i32 noundef %60, i32 noundef 1, i32 noundef 0)
  %62 = load ptr, ptr %8, align 8
  %63 = load i32, ptr @hf_ecmp_drive_derivative, align 4
  %64 = load ptr, ptr %5, align 8
  %65 = load i32, ptr %4, align 4
  %66 = add i32 %65, 1
  %67 = call ptr @proto_tree_add_item(ptr noundef %62, i32 noundef %63, ptr noundef %64, i32 noundef %66, i32 noundef 1, i32 noundef 0)
  %68 = load ptr, ptr %8, align 8
  %69 = load i32, ptr @hf_ecmp_drive_factory_fit_category_id, align 4
  %70 = load ptr, ptr %5, align 8
  %71 = load i32, ptr %4, align 4
  %72 = add i32 %71, 2
  %73 = call ptr @proto_tree_add_item(ptr noundef %68, i32 noundef %69, ptr noundef %70, i32 noundef %72, i32 noundef 2, i32 noundef 0)
  %74 = load i8, ptr %9, align 1
  %75 = zext i8 %74 to i32
  %76 = load i32, ptr %4, align 4
  %77 = add i32 %76, %75
  store i32 %77, ptr %4, align 4
  br label %90

78:                                               ; preds = %52, %48
  %79 = load ptr, ptr %8, align 8
  %80 = load i32, ptr @hf_ecmp_data, align 4
  %81 = load ptr, ptr %5, align 8
  %82 = load i32, ptr %4, align 4
  %83 = load i8, ptr %9, align 1
  %84 = zext i8 %83 to i32
  %85 = call ptr @proto_tree_add_item(ptr noundef %79, i32 noundef %80, ptr noundef %81, i32 noundef %82, i32 noundef %84, i32 noundef 0)
  %86 = load i8, ptr %9, align 1
  %87 = zext i8 %86 to i32
  %88 = load i32, ptr %4, align 4
  %89 = add i32 %88, %87
  store i32 %89, ptr %4, align 4
  br label %90

90:                                               ; preds = %78, %56
  br label %91

91:                                               ; preds = %90, %38
  %92 = load ptr, ptr %7, align 8
  %93 = load i32, ptr %4, align 4
  %94 = load i32, ptr %10, align 4
  %95 = sub i32 %93, %94
  call void @proto_item_set_len(ptr noundef %92, i32 noundef %95)
  %96 = load i32, ptr %4, align 4
  call void @llvm.lifetime.end.p0(i64 1, ptr %11) #3
  call void @llvm.lifetime.end.p0(i64 4, ptr %10) #3
  call void @llvm.lifetime.end.p0(i64 1, ptr %9) #3
  call void @llvm.lifetime.end.p0(i64 8, ptr %8) #3
  call void @llvm.lifetime.end.p0(i64 8, ptr %7) #3
  ret i32 %96
}