; Function Attrs: null_pointer_is_valid sspstrong uwtable
define internal fastcc i32 @add_category_codes(i32 noundef %0, ptr noundef %1, ptr noundef %2) unnamed_addr #0 {
  %4 = tail call zeroext i8 @tvb_get_uint8(ptr noundef %1, i32 noundef %0)
  %5 = load i32, ptr @hf_ecmp_category, align 4
  %6 = tail call ptr @proto_tree_add_item(ptr noundef %2, i32 noundef %5, ptr noundef %1, i32 noundef %0, i32 noundef 1, i32 noundef 0)
  %7 = load i32, ptr @ett_ecmp_category, align 4
  %8 = tail call ptr @proto_item_add_subtree(ptr noundef %6, i32 noundef %7)
  %9 = add i32 %0, 1
  %10 = tail call zeroext i8 @tvb_get_uint8(ptr noundef %1, i32 noundef %9)
  %11 = add i32 %0, 2
  %12 = zext i8 %10 to i32
  %13 = icmp eq i8 %10, 2
  %14 = icmp eq i8 %4, 1
  %or.cond = select i1 %13, i1 %14, i1 false
  br i1 %or.cond, label %15, label %19

15:                                               ; preds = %3
  %16 = load i32, ptr @hf_ecmp_category_id, align 4
  %17 = tail call ptr @proto_tree_add_item(ptr noundef %8, i32 noundef %16, ptr noundef %1, i32 noundef %11, i32 noundef 2, i32 noundef 0)
  %18 = add i32 %0, 4
  br label %36

19:                                               ; preds = %3
  %20 = icmp eq i8 %10, 4
  %21 = icmp eq i8 %4, 0
  %or.cond5 = select i1 %20, i1 %21, i1 false
  br i1 %or.cond5, label %22, label %32

22:                                               ; preds = %19
  %23 = load i32, ptr @hf_ecmp_drive_type, align 4
  %24 = tail call ptr @proto_tree_add_item(ptr noundef %8, i32 noundef %23, ptr noundef %1, i32 noundef %11, i32 noundef 1, i32 noundef 0)
  %25 = load i32, ptr @hf_ecmp_drive_derivative, align 4
  %26 = add i32 %0, 3
  %27 = tail call ptr @proto_tree_add_item(ptr noundef %8, i32 noundef %25, ptr noundef %1, i32 noundef %26, i32 noundef 1, i32 noundef 0)
  %28 = load i32, ptr @hf_ecmp_drive_factory_fit_category_id, align 4
  %29 = add i32 %0, 4
  %30 = tail call ptr @proto_tree_add_item(ptr noundef %8, i32 noundef %28, ptr noundef %1, i32 noundef %29, i32 noundef 2, i32 noundef 0)
  %31 = add i32 %0, 6
  br label %36

32:                                               ; preds = %19
  %33 = load i32, ptr @hf_ecmp_data, align 4
  %34 = tail call ptr @proto_tree_add_item(ptr noundef %8, i32 noundef %33, ptr noundef %1, i32 noundef %11, i32 noundef %12, i32 noundef 0)
  %35 = add i32 %11, %12
  br label %36

36:                                               ; preds = %22, %32, %15
  %.0 = phi i32 [ %18, %15 ], [ %31, %22 ], [ %35, %32 ]
  %37 = sub i32 %.0, %0
  tail call void @proto_item_set_len(ptr noundef %6, i32 noundef %37)
  ret i32 %.0
}